; Function Attrs: mustprogress uwtable
define void @_ZN2cv4GMatC2ENS_3MatE(ptr noundef nonnull writeonly align 8 captures(none) dereferenceable(16) %0, ptr noundef %1) unnamed_addr #3 align 2 personality ptr @__gxx_personality_v0 {
  %3 = alloca %"class.cv::util::variant", align 8
  %4 = tail call noalias noundef nonnull dereferenceable(184) ptr @_Znwm(i64 noundef 184) #21
  store i64 3, ptr %3, align 8, !tbaa !27
  %5 = getelementptr inbounds nuw i8, ptr %3, i64 8
  invoke void @_ZN2cv3MatC1ERKS0_(ptr noundef nonnull align 8 dereferenceable(96) %5, ptr noundef nonnull align 8 dereferenceable(96) %1)
          to label %_ZN2cv4util7variantIJNS0_9monostateENS_7Scalar_IdEENS_6detail9VectorRefENS_3MatEEEC2IRS7_vEEOT_.exit unwind label %_ZN2cv4util7variantIJNS0_9monostateENS_7Scalar_IdEENS_6detail9VectorRefENS_3MatEEED2Ev.exit6.thread

_ZN2cv4util7variantIJNS0_9monostateENS_7Scalar_IdEENS_6detail9VectorRefENS_3MatEEEC2IRS7_vEEOT_.exit: ; preds = %2
  invoke void @_ZN2cv7GOriginC1ENS_6GShapeENS_4util7variantIJNS2_9monostateENS_7Scalar_IdEENS_6detail9VectorRefENS_3MatEEEE(ptr noundef nonnull align 8 dereferenceable(180) %4, i32 noundef 0, ptr noundef nonnull %3)
          to label %6 unwind label %30

6:                                                ; preds = %_ZN2cv4util7variantIJNS0_9monostateENS_7Scalar_IdEENS_6detail9VectorRefENS_3MatEEEC2IRS7_vEEOT_.exit
  store ptr %4, ptr %0, align 8, !tbaa !8
  %7 = getelementptr inbounds nuw i8, ptr %0, i64 8
  store ptr null, ptr %7, align 8, !tbaa !14
  %8 = invoke noalias noundef nonnull dereferenceable(24) ptr @_Znwm(i64 noundef 24) #21
          to label %19 unwind label %9

9:                                                ; preds = %6
  %10 = landingpad { ptr, i32 }
          catch ptr null
  %11 = extractvalue { ptr, i32 } %10, 0
  %12 = call ptr @__cxa_begin_catch(ptr %11) #22
  call void @_ZN2cv7GOriginD2Ev(ptr noundef nonnull align 8 dereferenceable(180) %4) #22
  call void @_ZdlPv(ptr noundef nonnull %4) #23
  invoke void @__cxa_rethrow() #24
          to label %18 unwind label %13

13:                                               ; preds = %9
  %14 = landingpad { ptr, i32 }
          cleanup
  invoke void @__cxa_end_catch()
          to label %.body unwind label %15

15:                                               ; preds = %13
  %16 = landingpad { ptr, i32 }
          catch ptr null
  %17 = extractvalue { ptr, i32 } %16, 0
  call void @__clang_call_terminate(ptr %17) #25
  unreachable

18:                                               ; preds = %9
  unreachable

19:                                               ; preds = %6
  %20 = getelementptr inbounds nuw i8, ptr %8, i64 8
  store i32 1, ptr %20, align 8, !tbaa !15
  %21 = getelementptr inbounds nuw i8, ptr %8, i64 12
  store i32 1, ptr %21, align 4, !tbaa !18
  store ptr getelementptr inbounds nuw inrange(-16, 40) (i8, ptr @_ZTVSt15_Sp_counted_ptrIPN2cv7GOriginELN9__gnu_cxx12_Lock_policyE2EE, i64 16), ptr %8, align 8, !tbaa !19
  %22 = getelementptr inbounds nuw i8, ptr %8, i64 16
  store ptr %4, ptr %22, align 8, !tbaa !21
  store ptr %8, ptr %7, align 8, !tbaa !14
  %23 = load i64, ptr %3, align 8, !tbaa !27
  %24 = getelementptr inbounds nuw [4 x ptr], ptr @constinit.21, i64 0, i64 %23
  %25 = load ptr, ptr %24, align 8, !tbaa !23
  invoke void %25(ptr noundef nonnull %5)
          to label %_ZN2cv4util7variantIJNS0_9monostateENS_7Scalar_IdEENS_6detail9VectorRefENS_3MatEEED2Ev.exit unwind label %26

26:                                               ; preds = %19
  %27 = landingpad { ptr, i32 }
          catch ptr null
  %28 = extractvalue { ptr, i32 } %27, 0
  call void @__clang_call_terminate(ptr %28) #25
  unreachable

_ZN2cv4util7variantIJNS0_9monostateENS_7Scalar_IdEENS_6detail9VectorRefENS_3MatEEED2Ev.exit: ; preds = %19
  ret void

_ZN2cv4util7variantIJNS0_9monostateENS_7Scalar_IdEENS_6detail9VectorRefENS_3MatEEED2Ev.exit6.thread: ; preds = %2
  %29 = landingpad { ptr, i32 }
          cleanup
  br label %38

30:                                               ; preds = %_ZN2cv4util7variantIJNS0_9monostateENS_7Scalar_IdEENS_6detail9VectorRefENS_3MatEEEC2IRS7_vEEOT_.exit
  %31 = landingpad { ptr, i32 }
          cleanup
  br label %.body

.body:                                            ; preds = %13, %30
  %.0.lpad-body = phi i1 [ true, %30 ], [ false, %13 ]
  %eh.lpad-body = phi { ptr, i32 } [ %31, %30 ], [ %14, %13 ]
  %32 = load i64, ptr %3, align 8, !tbaa !27
  %33 = getelementptr inbounds nuw [4 x ptr], ptr @constinit.21, i64 0, i64 %32
  %34 = load ptr, ptr %33, align 8, !tbaa !23
  invoke void %34(ptr noundef nonnull %5)
          to label %_ZN2cv4util7variantIJNS0_9monostateENS_7Scalar_IdEENS_6detail9VectorRefENS_3MatEEED2Ev.exit6 unwind label %35

35:                                               ; preds = %.body
  %36 = landingpad { ptr, i32 }
          catch ptr null
  %37 = extractvalue { ptr, i32 } %36, 0
  call void @__clang_call_terminate(ptr %37) #25
  unreachable

_ZN2cv4util7variantIJNS0_9monostateENS_7Scalar_IdEENS_6detail9VectorRefENS_3MatEEED2Ev.exit6: ; preds = %.body
  br i1 %.0.lpad-body, label %38, label %39

38:                                               ; preds = %_ZN2cv4util7variantIJNS0_9monostateENS_7Scalar_IdEENS_6detail9VectorRefENS_3MatEEED2Ev.exit6.thread, %_ZN2cv4util7variantIJNS0_9monostateENS_7Scalar_IdEENS_6detail9VectorRefENS_3MatEEED2Ev.exit6
  %.pn10 = phi { ptr, i32 } [ %29, %_ZN2cv4util7variantIJNS0_9monostateENS_7Scalar_IdEENS_6detail9VectorRefENS_3MatEEED2Ev.exit6.thread ], [ %eh.lpad-body, %_ZN2cv4util7variantIJNS0_9monostateENS_7Scalar_IdEENS_6detail9VectorRefENS_3MatEEED2Ev.exit6 ]
  call void @_ZdlPv(ptr noundef nonnull %4) #23
  br label %39

39:                                               ; preds = %_ZN2cv4util7variantIJNS0_9monostateENS_7Scalar_IdEENS_6detail9VectorRefENS_3MatEEED2Ev.exit6, %38
  %.pn9 = phi { ptr, i32 } [ %eh.lpad-body, %_ZN2cv4util7variantIJNS0_9monostateENS_7Scalar_IdEENS_6detail9VectorRefENS_3MatEEED2Ev.exit6 ], [ %.pn10, %38 ]
  resume { ptr, i32 } %.pn9
}